; Function Attrs: nounwind uwtable
define i32 @WebPPictureARGBToYUVA(ptr noundef %0, i32 noundef %1) local_unnamed_addr #0 {
  %3 = icmp eq ptr %0, null
  br i1 %3, label %PictureARGBToYUVA.exit, label %4

4:                                                ; preds = %2
  %5 = getelementptr inbounds nuw i8, ptr %0, i64 72
  %6 = load ptr, ptr %5, align 8, !tbaa !12
  %7 = icmp eq ptr %6, null
  br i1 %7, label %8, label %10

8:                                                ; preds = %4
  %9 = tail call i32 @WebPEncodingSetError(ptr noundef nonnull %0, i32 noundef 3) #9
  br label %PictureARGBToYUVA.exit

10:                                               ; preds = %4
  %11 = and i32 %1, 3
  %.not.i = icmp eq i32 %11, 0
  br i1 %.not.i, label %14, label %12

12:                                               ; preds = %10
  %13 = tail call i32 @WebPEncodingSetError(ptr noundef nonnull %0, i32 noundef 4) #9
  br label %PictureARGBToYUVA.exit

14:                                               ; preds = %10
  %15 = getelementptr inbounds nuw i8, ptr %6, i64 3
  %16 = getelementptr inbounds nuw i8, ptr %6, i64 2
  %17 = getelementptr inbounds nuw i8, ptr %6, i64 1
  %18 = getelementptr inbounds nuw i8, ptr %0, i64 4
  store i32 0, ptr %18, align 4, !tbaa !22
  %19 = getelementptr inbounds nuw i8, ptr %0, i64 80
  %20 = load i32, ptr %19, align 8, !tbaa !15
  %21 = shl nsw i32 %20, 2
  %22 = tail call fastcc i32 @ImportYUVAFromRGBA(ptr noundef %16, ptr noundef %17, ptr noundef %6, ptr noundef nonnull %15, i32 noundef 4, i32 noundef %21, float noundef 0.000000e+00, i32 noundef 0, ptr noundef %0)
  br label %PictureARGBToYUVA.exit

PictureARGBToYUVA.exit:                           ; preds = %2, %8, %12, %14
  %.0.i = phi i32 [ %9, %8 ], [ %13, %12 ], [ %22, %14 ], [ 0, %2 ]
  ret i32 %.0.i
}